	.file	"cmdl.c"
	.text
.Ltext0:
	.section	.rodata
.LC0:
	.string	"%d"
.LC1:
	.string	"enter valid no of inputs"
.LC2:
	.string	"failed allocate to memory"
.LC3:
	.string	"%d\t"
	.align 8
.LC4:
	.string	"\n-a:to print binary values\n-b:ascending order\n-c:desending order\n-d:to print the palindromes"
.LC5:
	.string	"invalid flag use -h for help"
.LC6:
	.string	"invalid flag"
	.align 8
.LC7:
	.string	"- is not used for the flag use -h for help"
	.text
	.globl	main
	.type	main, @function
main:
.LFB6:
	.file 1 "cmdl.c"
	.loc 1 9 1
	.cfi_startproc
	endbr64
	pushq	%rbp
	.cfi_def_cfa_offset 16
	.cfi_offset 6, -16
	movq	%rsp, %rbp
	.cfi_def_cfa_register 6
	pushq	%rbx
	subq	$56, %rsp
	.cfi_offset 3, -24
	movl	%edi, -52(%rbp)
	movq	%rsi, -64(%rbp)
	.loc 1 9 1
	movq	%fs:40, %rax
	movq	%rax, -24(%rbp)
	xorl	%eax, %eax
	.loc 1 11 2
	leaq	-44(%rbp), %rax
	movq	%rax, %rsi
	leaq	.LC0(%rip), %rdi
	movl	$0, %eax
	call	__isoc99_scanf@PLT
	.loc 1 12 2
	movl	-44(%rbp), %eax
	movl	%eax, %esi
	leaq	.LC0(%rip), %rdi
	movl	$0, %eax
	call	printf@PLT
	.loc 1 13 4
	cmpl	$2, -52(%rbp)
	jg	.L2
	.loc 1 14 3
	leaq	.LC1(%rip), %rdi
	movl	$0, %eax
	call	printf@PLT
	.loc 1 15 3
	movl	$1, %edi
	call	exit@PLT
.L2:
	.loc 1 16 14
	movq	-64(%rbp), %rax
	addq	$8, %rax
	movq	(%rax), %rax
	.loc 1 16 17
	movzbl	(%rax), %eax
	.loc 1 16 9
	cmpb	$45, %al
	jne	.L3
	.loc 1 17 10
	movq	-64(%rbp), %rax
	addq	$8, %rax
	movq	(%rax), %rax
	.loc 1 17 13
	addq	$2, %rax
	movzbl	(%rax), %eax
	.loc 1 17 5
	testb	%al, %al
	jne	.L4
	.loc 1 18 5
	movl	-52(%rbp), %eax
	subl	$2, %eax
	movl	%eax, -36(%rbp)
	.loc 1 19 14
	movl	-36(%rbp), %eax
	cltq
	movl	$4, %esi
	movq	%rax, %rdi
	call	calloc@PLT
	movq	%rax, -32(%rbp)
	.loc 1 20 6
	cmpq	$0, -32(%rbp)
	jne	.L5
	.loc 1 21 5
	leaq	.LC2(%rip), %rdi
	movl	$0, %eax
	call	printf@PLT
	.loc 1 22 5
	movl	$1, %edi
	call	exit@PLT
.L5:
	.loc 1 23 9
	movl	$2, -40(%rbp)
	.loc 1 23 4
	jmp	.L6
.L7:
	.loc 1 24 23 discriminator 3
	movl	-40(%rbp), %eax
	cltq
	leaq	0(,%rax,8), %rdx
	movq	-64(%rbp), %rax
	addq	%rdx, %rax
	.loc 1 24 14 discriminator 3
	movq	(%rax), %rax
	.loc 1 24 8 discriminator 3
	movl	-40(%rbp), %edx
	movslq	%edx, %rdx
	salq	$2, %rdx
	leaq	-8(%rdx), %rcx
	movq	-32(%rbp), %rdx
	leaq	(%rcx,%rdx), %rbx
	.loc 1 24 14 discriminator 3
	movq	%rax, %rdi
	call	stoi
	.loc 1 24 13 discriminator 3
	movl	%eax, (%rbx)
	.loc 1 23 20 discriminator 3
	addl	$1, -40(%rbp)
.L6:
	.loc 1 23 4 discriminator 1
	movl	-40(%rbp), %eax
	cmpl	-52(%rbp), %eax
	jl	.L7
	.loc 1 25 15
	movq	-64(%rbp), %rax
	addq	$8, %rax
	movq	(%rax), %rax
	.loc 1 25 18
	addq	$1, %rax
	movzbl	(%rax), %eax
	movsbl	%al, %eax
	subl	$97, %eax
	cmpl	$7, %eax
	ja	.L8
	movl	%eax, %eax
	leaq	0(,%rax,4), %rdx
	leaq	.L10(%rip), %rax
	movl	(%rdx,%rax), %eax
	cltq
	leaq	.L10(%rip), %rdx
	addq	%rdx, %rax
	notrack jmp	*%rax
	.section	.rodata
	.align 4
	.align 4
.L10:
	.long	.L14-.L10
	.long	.L13-.L10
	.long	.L12-.L10
	.long	.L11-.L10
	.long	.L8-.L10
	.long	.L8-.L10
	.long	.L8-.L10
	.long	.L9-.L10
	.text
.L14:
	.loc 1 26 20
	movl	$0, -40(%rbp)
	.loc 1 26 15
	jmp	.L15
.L16:
	.loc 1 27 20 discriminator 3
	movl	-40(%rbp), %eax
	cltq
	leaq	0(,%rax,4), %rdx
	movq	-32(%rbp), %rax
	addq	%rdx, %rax
	.loc 1 27 7 discriminator 3
	movl	(%rax), %eax
	movl	%eax, %edi
	call	bin_value
	.loc 1 26 33 discriminator 3
	addl	$1, -40(%rbp)
.L15:
	.loc 1 26 29 discriminator 1
	movl	-52(%rbp), %eax
	subl	$2, %eax
	.loc 1 26 15 discriminator 1
	cmpl	%eax, -40(%rbp)
	jl	.L16
	.loc 1 28 6
	jmp	.L21
.L13:
	.loc 1 29 15
	movl	-52(%rbp), %eax
	leal	-2(%rax), %edx
	movq	-32(%rbp), %rax
	movl	%edx, %esi
	movq	%rax, %rdi
	call	asce_ord
	.loc 1 30 6
	jmp	.L21
.L12:
	.loc 1 31 15
	movl	-52(%rbp), %eax
	leal	-2(%rax), %edx
	movq	-32(%rbp), %rax
	movl	%edx, %esi
	movq	%rax, %rdi
	call	desce_ord
	.loc 1 32 6
	jmp	.L21
.L11:
	.loc 1 33 19
	movl	$0, -40(%rbp)
	.loc 1 33 14
	jmp	.L18
.L20:
	.loc 1 34 25
	movl	-40(%rbp), %eax
	cltq
	leaq	0(,%rax,4), %rdx
	movq	-32(%rbp), %rax
	addq	%rdx, %rax
	.loc 1 34 16
	movl	(%rax), %eax
	movl	%eax, %edi
	call	palin
	.loc 1 34 15
	testl	%eax, %eax
	je	.L19
	.loc 1 35 31
	movl	-40(%rbp), %eax
	cltq
	leaq	0(,%rax,4), %rdx
	movq	-32(%rbp), %rax
	addq	%rdx, %rax
	.loc 1 35 14
	movl	(%rax), %eax
	movl	%eax, %esi
	leaq	.LC3(%rip), %rdi
	movl	$0, %eax
	call	printf@PLT
.L19:
	.loc 1 33 32 discriminator 2
	addl	$1, -40(%rbp)
.L18:
	.loc 1 33 28 discriminator 1
	movl	-52(%rbp), %eax
	subl	$2, %eax
	.loc 1 33 14 discriminator 1
	cmpl	%eax, -40(%rbp)
	jl	.L20
	.loc 1 36 12
	jmp	.L21
.L9:
	.loc 1 38 12
	leaq	.LC4(%rip), %rdi
	movl	$0, %eax
	call	printf@PLT
	jmp	.L21
.L8:
	.loc 1 40 12
	leaq	.LC5(%rip), %rdi
	movl	$0, %eax
	call	printf@PLT
	jmp	.L21
.L4:
	.loc 1 43 3
	leaq	.LC6(%rip), %rdi
	movl	$0, %eax
	call	printf@PLT
	jmp	.L21
.L3:
	.loc 1 45 7
	leaq	.LC7(%rip), %rdi
	movl	$0, %eax
	call	printf@PLT
.L21:
	.loc 1 46 2
	movq	-32(%rbp), %rax
	movq	%rax, %rdi
	call	free@PLT
	.loc 1 47 1
	nop
	movq	-24(%rbp), %rax
	xorq	%fs:40, %rax
	je	.L22
	call	__stack_chk_fail@PLT
.L22:
	addq	$56, %rsp
	popq	%rbx
	popq	%rbp
	.cfi_def_cfa 7, 8
	ret
	.cfi_endproc
.LFE6:
	.size	main, .-main
	.section	.rodata
.LC8:
	.string	"invalid input"
	.text
	.globl	stoi
	.type	stoi, @function
stoi:
.LFB7:
	.loc 1 49 1
	.cfi_startproc
	endbr64
	pushq	%rbp
	.cfi_def_cfa_offset 16
	.cfi_offset 6, -16
	movq	%rsp, %rbp
	.cfi_def_cfa_register 6
	subq	$32, %rsp
	movq	%rdi, -24(%rbp)
	.loc 1 50 8
	movl	$0, -8(%rbp)
	.loc 1 50 12
	movl	$1, -4(%rbp)
	.loc 1 51 7
	movl	$0, -12(%rbp)
	.loc 1 51 2
	jmp	.L24
.L31:
	.loc 1 54 11
	movl	-12(%rbp), %eax
	movslq	%eax, %rdx
	movq	-24(%rbp), %rax
	addq	%rdx, %rax
	movzbl	(%rax), %eax
	.loc 1 54 5
	cmpb	$47, %al
	jle	.L25
	.loc 1 54 26 discriminator 1
	movl	-12(%rbp), %eax
	movslq	%eax, %rdx
	movq	-24(%rbp), %rax
	addq	%rdx, %rax
	movzbl	(%rax), %eax
	.loc 1 54 20 discriminator 1
	cmpb	$57, %al
	jle	.L26
.L25:
	.loc 1 54 43 discriminator 3
	movl	-12(%rbp), %eax
	movslq	%eax, %rdx
	movq	-24(%rbp), %rax
	addq	%rdx, %rax
	movzbl	(%rax), %eax
	.loc 1 54 36 discriminator 3
	cmpb	$45, %al
	jne	.L27
	.loc 1 54 52 discriminator 4
	cmpl	$0, -12(%rbp)
	jne	.L27
	.loc 1 54 66 discriminator 5
	movl	-12(%rbp), %eax
	cltq
	leaq	1(%rax), %rdx
	movq	-24(%rbp), %rax
	addq	%rdx, %rax
	movzbl	(%rax), %eax
	.loc 1 54 60 discriminator 5
	testb	%al, %al
	je	.L27
.L26:
	.loc 1 55 12
	movl	-12(%rbp), %eax
	movslq	%eax, %rdx
	movq	-24(%rbp), %rax
	addq	%rdx, %rax
	movzbl	(%rax), %eax
	.loc 1 55 7
	cmpb	$45, %al
	jne	.L28
	.loc 1 55 21 discriminator 1
	cmpl	$0, -12(%rbp)
	jne	.L28
	.loc 1 57 6
	movl	$-1, -4(%rbp)
	.loc 1 55 7
	jmp	.L30
.L28:
	.loc 1 60 7
	movl	-8(%rbp), %edx
	movl	%edx, %eax
	sall	$2, %eax
	addl	%edx, %eax
	addl	%eax, %eax
	movl	%eax, %ecx
	.loc 1 60 15
	movl	-12(%rbp), %eax
	movslq	%eax, %rdx
	movq	-24(%rbp), %rax
	addq	%rdx, %rax
	movzbl	(%rax), %eax
	movsbl	%al, %eax
	.loc 1 60 18
	subl	$48, %eax
	.loc 1 60 5
	addl	%ecx, %eax
	movl	%eax, -8(%rbp)
	.loc 1 55 7
	jmp	.L30
.L27:
	.loc 1 63 4
	leaq	.LC8(%rip), %rdi
	movl	$0, %eax
	call	printf@PLT
	.loc 1 64 4
	movl	$1, %edi
	call	exit@PLT
.L30:
	.loc 1 51 24 discriminator 2
	addl	$1, -12(%rbp)
.L24:
	.loc 1 51 13 discriminator 1
	movl	-12(%rbp), %eax
	movslq	%eax, %rdx
	movq	-24(%rbp), %rax
	addq	%rdx, %rax
	movzbl	(%rax), %eax
	.loc 1 51 2 discriminator 1
	testb	%al, %al
	jne	.L31
	.loc 1 66 10
	movl	-8(%rbp), %eax
	imull	-4(%rbp), %eax
	.loc 1 67 1
	leave
	.cfi_def_cfa 7, 8
	ret
	.cfi_endproc
.LFE7:
	.size	stoi, .-stoi
	.section	.rodata
.LC9:
	.string	"\n%d-"
	.text
	.globl	bin_value
	.type	bin_value, @function
bin_value:
.LFB8:
	.loc 1 69 1
	.cfi_startproc
	endbr64
	pushq	%rbp
	.cfi_def_cfa_offset 16
	.cfi_offset 6, -16
	movq	%rsp, %rbp
	.cfi_def_cfa_register 6
	subq	$32, %rsp
	movl	%edi, -20(%rbp)
	.loc 1 71 2
	movl	-20(%rbp), %eax
	movl	%eax, %esi
	leaq	.LC9(%rip), %rdi
	movl	$0, %eax
	call	printf@PLT
	.loc 1 72 7
	movl	$31, -4(%rbp)
	.loc 1 72 2
	jmp	.L34
.L35:
	.loc 1 73 18 discriminator 3
	movl	-4(%rbp), %eax
	movl	-20(%rbp), %edx
	movl	%eax, %ecx
	sarl	%cl, %edx
	movl	%edx, %eax
	.loc 1 73 3 discriminator 3
	andl	$1, %eax
	movl	%eax, %esi
	leaq	.LC0(%rip), %rdi
	movl	$0, %eax
	call	printf@PLT
	.loc 1 72 17 discriminator 3
	subl	$1, -4(%rbp)
.L34:
	.loc 1 72 2 discriminator 1
	cmpl	$0, -4(%rbp)
	jns	.L35
	.loc 1 74 2
	movl	$10, %edi
	call	putchar@PLT
	.loc 1 75 1
	nop
	leave
	.cfi_def_cfa 7, 8
	ret
	.cfi_endproc
.LFE8:
	.size	bin_value, .-bin_value
	.globl	asce_ord
	.type	asce_ord, @function
asce_ord:
.LFB9:
	.loc 1 76 30
	.cfi_startproc
	endbr64
	pushq	%rbp
	.cfi_def_cfa_offset 16
	.cfi_offset 6, -16
	movq	%rsp, %rbp
	.cfi_def_cfa_register 6
	subq	$32, %rsp
	movq	%rdi, -24(%rbp)
	movl	%esi, -28(%rbp)
	.loc 1 78 7
	movl	$0, -12(%rbp)
	.loc 1 78 2
	jmp	.L37
.L41:
	.loc 1 80 8
	movl	-12(%rbp), %eax
	addl	$1, %eax
	movl	%eax, -8(%rbp)
	.loc 1 80 3
	jmp	.L38
.L40:
	.loc 1 82 10
	movl	-12(%rbp), %eax
	cltq
	leaq	0(,%rax,4), %rdx
	movq	-24(%rbp), %rax
	addq	%rdx, %rax
	movl	(%rax), %edx
	.loc 1 82 17
	movl	-8(%rbp), %eax
	cltq
	leaq	0(,%rax,4), %rcx
	movq	-24(%rbp), %rax
	addq	%rcx, %rax
	movl	(%rax), %eax
	.loc 1 82 6
	cmpl	%eax, %edx
	jle	.L39
	.loc 1 84 10
	movl	-12(%rbp), %eax
	cltq
	leaq	0(,%rax,4), %rdx
	movq	-24(%rbp), %rax
	addq	%rdx, %rax
	.loc 1 84 6
	movl	(%rax), %eax
	movl	%eax, -4(%rbp)
	.loc 1 85 15
	movl	-8(%rbp), %eax
	cltq
	leaq	0(,%rax,4), %rdx
	movq	-24(%rbp), %rax
	addq	%rdx, %rax
	.loc 1 85 8
	movl	-12(%rbp), %edx
	movslq	%edx, %rdx
	leaq	0(,%rdx,4), %rcx
	movq	-24(%rbp), %rdx
	addq	%rcx, %rdx
	.loc 1 85 15
	movl	(%rax), %eax
	.loc 1 85 11
	movl	%eax, (%rdx)
	.loc 1 86 8
	movl	-8(%rbp), %eax
	cltq
	leaq	0(,%rax,4), %rdx
	movq	-24(%rbp), %rax
	addq	%rax, %rdx
	.loc 1 86 11
	movl	-4(%rbp), %eax
	movl	%eax, (%rdx)
.L39:
	.loc 1 80 18 discriminator 2
	addl	$1, -8(%rbp)
.L38:
	.loc 1 80 3 discriminator 1
	movl	-8(%rbp), %eax
	cmpl	-28(%rbp), %eax
	jl	.L40
	.loc 1 89 19 discriminator 2
	movl	-12(%rbp), %eax
	cltq
	leaq	0(,%rax,4), %rdx
	movq	-24(%rbp), %rax
	addq	%rdx, %rax
	.loc 1 89 2 discriminator 2
	movl	(%rax), %eax
	movl	%eax, %esi
	leaq	.LC3(%rip), %rdi
	movl	$0, %eax
	call	printf@PLT
	.loc 1 78 15 discriminator 2
	addl	$1, -12(%rbp)
.L37:
	.loc 1 78 2 discriminator 1
	movl	-12(%rbp), %eax
	cmpl	-28(%rbp), %eax
	jl	.L41
	.loc 1 91 1
	nop
	nop
	leave
	.cfi_def_cfa 7, 8
	ret
	.cfi_endproc
.LFE9:
	.size	asce_ord, .-asce_ord
	.globl	desce_ord
	.type	desce_ord, @function
desce_ord:
.LFB10:
	.loc 1 94 31
	.cfi_startproc
	endbr64
	pushq	%rbp
	.cfi_def_cfa_offset 16
	.cfi_offset 6, -16
	movq	%rsp, %rbp
	.cfi_def_cfa_register 6
	subq	$32, %rsp
	movq	%rdi, -24(%rbp)
	movl	%esi, -28(%rbp)
	.loc 1 96 7
	movl	$0, -12(%rbp)
	.loc 1 96 2
	jmp	.L43
.L47:
	.loc 1 98 8
	movl	-12(%rbp), %eax
	addl	$1, %eax
	movl	%eax, -8(%rbp)
	.loc 1 98 3
	jmp	.L44
.L46:
	.loc 1 100 10
	movl	-12(%rbp), %eax
	cltq
	leaq	0(,%rax,4), %rdx
	movq	-24(%rbp), %rax
	addq	%rdx, %rax
	movl	(%rax), %edx
	.loc 1 100 17
	movl	-8(%rbp), %eax
	cltq
	leaq	0(,%rax,4), %rcx
	movq	-24(%rbp), %rax
	addq	%rcx, %rax
	movl	(%rax), %eax
	.loc 1 100 6
	cmpl	%eax, %edx
	jge	.L45
	.loc 1 102 10
	movl	-12(%rbp), %eax
	cltq
	leaq	0(,%rax,4), %rdx
	movq	-24(%rbp), %rax
	addq	%rdx, %rax
	.loc 1 102 6
	movl	(%rax), %eax
	movl	%eax, -4(%rbp)
	.loc 1 103 15
	movl	-8(%rbp), %eax
	cltq
	leaq	0(,%rax,4), %rdx
	movq	-24(%rbp), %rax
	addq	%rdx, %rax
	.loc 1 103 8
	movl	-12(%rbp), %edx
	movslq	%edx, %rdx
	leaq	0(,%rdx,4), %rcx
	movq	-24(%rbp), %rdx
	addq	%rcx, %rdx
	.loc 1 103 15
	movl	(%rax), %eax
	.loc 1 103 11
	movl	%eax, (%rdx)
	.loc 1 104 8
	movl	-8(%rbp), %eax
	cltq
	leaq	0(,%rax,4), %rdx
	movq	-24(%rbp), %rax
	addq	%rax, %rdx
	.loc 1 104 11
	movl	-4(%rbp), %eax
	movl	%eax, (%rdx)
.L45:
	.loc 1 98 18 discriminator 2
	addl	$1, -8(%rbp)
.L44:
	.loc 1 98 3 discriminator 1
	movl	-8(%rbp), %eax
	cmpl	-28(%rbp), %eax
	jl	.L46
	.loc 1 107 19 discriminator 2
	movl	-12(%rbp), %eax
	cltq
	leaq	0(,%rax,4), %rdx
	movq	-24(%rbp), %rax
	addq	%rdx, %rax
	.loc 1 107 2 discriminator 2
	movl	(%rax), %eax
	movl	%eax, %esi
	leaq	.LC3(%rip), %rdi
	movl	$0, %eax
	call	printf@PLT
	.loc 1 96 15 discriminator 2
	addl	$1, -12(%rbp)
.L43:
	.loc 1 96 2 discriminator 1
	movl	-12(%rbp), %eax
	cmpl	-28(%rbp), %eax
	jl	.L47
	.loc 1 109 1
	nop
	nop
	leave
	.cfi_def_cfa 7, 8
	ret
	.cfi_endproc
.LFE10:
	.size	desce_ord, .-desce_ord
	.globl	palin
	.type	palin, @function
palin:
.LFB11:
	.loc 1 111 17
	.cfi_startproc
	endbr64
	pushq	%rbp
	.cfi_def_cfa_offset 16
	.cfi_offset 6, -16
	movq	%rsp, %rbp
	.cfi_def_cfa_register 6
	movl	%edi, -20(%rbp)
	.loc 1 112 6
	movl	$0, -12(%rbp)
	.loc 1 112 14
	movl	-20(%rbp), %eax
	movl	%eax, -8(%rbp)
	.loc 1 113 7
	jmp	.L49
.L50:
	.loc 1 115 6
	movl	-20(%rbp), %edx
	movslq	%edx, %rax
	imulq	$1717986919, %rax, %rax
	shrq	$32, %rax
	movl	%eax, %ecx
	sarl	$2, %ecx
	movl	%edx, %eax
	sarl	$31, %eax
	subl	%eax, %ecx
	movl	%ecx, %eax
	sall	$2, %eax
	addl	%ecx, %eax
	addl	%eax, %eax
	subl	%eax, %edx
	movl	%edx, %eax
	movl	%eax, -4(%rbp)
	.loc 1 116 6
	movl	-12(%rbp), %edx
	movl	%edx, %eax
	sall	$2, %eax
	addl	%edx, %eax
	addl	%eax, %eax
	movl	%eax, %edx
	.loc 1 116 4
	movl	-4(%rbp), %eax
	addl	%edx, %eax
	movl	%eax, -12(%rbp)
	.loc 1 117 4
	movl	-20(%rbp), %eax
	movslq	%eax, %rdx
	imulq	$1717986919, %rdx, %rdx
	shrq	$32, %rdx
	sarl	$2, %edx
	sarl	$31, %eax
	subl	%eax, %edx
	movl	%edx, %eax
	movl	%eax, -20(%rbp)
.L49:
	.loc 1 113 7
	cmpl	$0, -20(%rbp)
	jne	.L50
	.loc 1 119 4
	movl	-8(%rbp), %eax
	cmpl	-12(%rbp), %eax
	jne	.L51
	.loc 1 120 10
	movl	$1, %eax
	jmp	.L52
.L51:
	.loc 1 121 14
	movl	$0, %eax
.L52:
	.loc 1 122 1
	popq	%rbp
	.cfi_def_cfa 7, 8
	ret
	.cfi_endproc
.LFE11:
	.size	palin, .-palin
.Letext0:
	.file 2 "/usr/lib/gcc/x86_64-linux-gnu/9/include/stddef.h"
	.file 3 "/usr/include/x86_64-linux-gnu/bits/types.h"
	.file 4 "/usr/include/x86_64-linux-gnu/bits/types/struct_FILE.h"
	.file 5 "/usr/include/x86_64-linux-gnu/bits/types/FILE.h"
	.file 6 "/usr/include/stdio.h"
	.file 7 "/usr/include/x86_64-linux-gnu/bits/sys_errlist.h"
	.section	.note.GNU-stack,"",@progbits
	.section	.note.gnu.property,"a"
	.align 8
	.long	 1f - 0f
	.long	 4f - 1f
	.long	 5
0:
	.string	 "GNU"
1:
	.align 8
	.long	 0xc0000002
	.long	 3f - 2f
2:
	.long	 0x3
3:
	.align 8
4:
